target datalayout = "e-m:e-p270:32:32-p271:32:32-p272:64:64-i64:64-i128:128-f80:128-n8:16:32:64-S128"
target triple = "x86_64-pc-linux-gnu"

%struct.rb_data_type_struct = type { ptr, %struct.anon.12, ptr, ptr, i64 }
%struct.anon.12 = type { ptr, ptr, ptr, ptr, [1 x ptr] }
%struct.rb_thread_struct = type { %struct.ccan_list_node, i64, ptr, ptr, ptr, ptr, %struct.rb_thread_sched_item, i8, i32, i64, ptr, i64, i64, i8, i8, i32, ptr, i64, i64, i64, i64, %union.pthread_mutex_t, %struct.rb_unblock_callback, i64, ptr, %struct.ccan_list_head, ptr, %union.anon, i32, i64, ptr, i64, i32, i64, ptr, %struct.rb_ext_config }
%struct.ccan_list_node = type { ptr, ptr }
%struct.rb_thread_sched_item = type { %struct.anon, %struct.rb_thread_sched_waiting, i8, i8, ptr, ptr }
%struct.anon = type { %struct.ccan_list_node, %struct.ccan_list_node, %struct.ccan_list_node, %struct.ccan_list_node, %struct.ccan_list_node }
%struct.rb_thread_sched_waiting = type { i32, %struct.anon.0, %struct.ccan_list_node }
%struct.anon.0 = type { i64, i32, i32 }
%union.pthread_mutex_t = type { %struct.__pthread_mutex_s }
%struct.__pthread_mutex_s = type { i32, i32, i32, i32, i32, i16, i16, %struct.__pthread_internal_list }
%struct.__pthread_internal_list = type { ptr, ptr }
%struct.rb_unblock_callback = type { ptr, ptr }
%struct.ccan_list_head = type { %struct.ccan_list_node }
%union.anon = type { %struct.anon.1 }
%struct.anon.1 = type { i64, i64, i32 }
%struct.rb_ext_config = type { i8 }
%struct.rb_process_status = type { i32, i32, i32 }
%struct.RTypedData = type { %struct.RBasic, ptr, i64, ptr }
%struct.RBasic = type { i64, i64 }
%struct.rb_execarg = type { %union.anon.13, i64, i64, i64, i64, i16, ptr, ptr, i32, i64, i32, i32, i32, i32, i64, i64, i64, i64, i64, i64, i64 }
%union.anon.13 = type { %struct.anon.15 }
%struct.anon.15 = type { i64, i64, i64, i64 }
%struct.anon.14 = type { i64 }
%struct.__sigset_t = type { [16 x i64] }
%struct.rb_execution_context_struct = type { ptr, i64, ptr, ptr, i32, i32, ptr, ptr, ptr, i64, i64, i64, ptr, i64, ptr, i64, i64, i8, i8, i64, %struct.anon.11 }
%struct.anon.11 = type { ptr, ptr, i64, [1 x %struct.__jmp_buf_tag] }
%struct.__jmp_buf_tag = type { [8 x i64], i32, %struct.__sigset_t }

@rb_process_status_type = internal constant %struct.rb_data_type_struct { ptr @.str.172, %struct.anon.12 { ptr null, ptr inttoptr (i64 -1 to ptr), ptr null, ptr null, [1 x ptr] zeroinitializer }, ptr null, ptr null, i64 35 }, align 8
@rb_eArgError = external global i64, align 8
@exec_arg_data_type = internal constant %struct.rb_data_type_struct { ptr @.str.186, %struct.anon.12 { ptr @mark_exec_arg, ptr inttoptr (i64 -1 to ptr), ptr @memsize_exec_arg, ptr null, [1 x ptr] zeroinitializer }, ptr null, ptr null, i64 3 }, align 8
@.str.12 = private unnamed_addr constant [32 x i8] c"exception option is not allowed\00", align 1
@ruby_current_ec = external thread_local global ptr, align 8
@rb_eRuntimeError = external global i64, align 8
@.str.230 = private unnamed_addr constant [20 x i8] c"Command failed with\00", align 1
@.str.231 = private unnamed_addr constant [3 x i8] c": \00", align 1

; Function Attrs: inlinehint nounwind sspstrong uwtable
define internal zeroext i1 @RTYPEDDATA_EMBEDDED_P(i64 noundef %0) #1 {
  %2 = alloca i64, align 8
  store i64 %0, ptr %2, align 8, !tbaa !35
  %3 = load i64, ptr %2, align 8, !tbaa !35
  %4 = inttoptr i64 %3 to ptr
  %5 = getelementptr inbounds nuw %struct.RTypedData, ptr %4, i32 0, i32 2
  %6 = load i64, ptr %5, align 8, !tbaa !211
  %7 = and i64 %6, 2
  %8 = icmp ne i64 %7, 0
  ret i1 %8
}

; Function Attrs: inlinehint nounwind sspstrong uwtable
define internal ptr @RTYPEDDATA_GET_DATA(i64 noundef %0) #1 {
  %2 = alloca i64, align 8
  %3 = alloca i64, align 8
  store i64 %0, ptr %2, align 8, !tbaa !35
  call void @llvm.lifetime.start.p0(i64 8, ptr %3) #27
  store i64 32, ptr %3, align 8, !tbaa !35
  %4 = load i64, ptr %2, align 8, !tbaa !35
  %5 = call zeroext i1 @RTYPEDDATA_EMBEDDED_P(i64 noundef %4)
  br i1 %5, label %6, label %10

6:                                                ; preds = %1
  %7 = load i64, ptr %2, align 8, !tbaa !35
  %8 = inttoptr i64 %7 to ptr
  %9 = getelementptr i8, ptr %8, i64 32
  br label %15

10:                                               ; preds = %1
  %11 = load i64, ptr %2, align 8, !tbaa !35
  %12 = inttoptr i64 %11 to ptr
  %13 = getelementptr inbounds nuw %struct.RTypedData, ptr %12, i32 0, i32 3
  %14 = load ptr, ptr %13, align 8, !tbaa !42
  br label %15

15:                                               ; preds = %10, %6
  %16 = phi ptr [ %9, %6 ], [ %14, %10 ]
  call void @llvm.lifetime.end.p0(i64 8, ptr %3) #27
  ret ptr %16
}

; Function Attrs: inlinehint nounwind sspstrong uwtable
define internal ptr @rb_ec_thread_ptr(ptr noundef %0) #1 {
  %2 = alloca ptr, align 8
  store ptr %0, ptr %2, align 8, !tbaa !33
  %3 = load ptr, ptr %2, align 8, !tbaa !33
  %4 = getelementptr inbounds nuw %struct.rb_execution_context_struct, ptr %3, i32 0, i32 7
  %5 = load ptr, ptr %4, align 8, !tbaa !210
  ret ptr %5
}

; Function Attrs: inlinehint nounwind sspstrong uwtable
define internal ptr @rb_current_execution_context(i1 noundef zeroext %0) #1 {
  %2 = alloca i8, align 1
  %3 = alloca ptr, align 8
  %4 = zext i1 %0 to i8
  store i8 %4, ptr %2, align 1, !tbaa !57
  call void @llvm.lifetime.start.p0(i64 8, ptr %3) #27
  %5 = call align 8 ptr @llvm.threadlocal.address.p0(ptr align 8 @ruby_current_ec)
  %6 = load ptr, ptr %5, align 8, !tbaa !33
  store ptr %6, ptr %3, align 8, !tbaa !33
  %7 = load ptr, ptr %3, align 8, !tbaa !33
  call void @llvm.lifetime.end.p0(i64 8, ptr %3) #27
  ret ptr %7
}

; Function Attrs: nounwind sspstrong uwtable
define internal void @last_status_clear(ptr noundef %0) #0 {
  %2 = alloca ptr, align 8
  store ptr %0, ptr %2, align 8, !tbaa !46
  %3 = load ptr, ptr %2, align 8, !tbaa !46
  %4 = getelementptr inbounds nuw %struct.rb_thread_struct, ptr %3, i32 0, i32 9
  store i64 4, ptr %4, align 8, !tbaa !7
  ret void
}

; Function Attrs: nounwind sspstrong uwtable
define dso_local ptr @rb_execarg_get(i64 noundef %0) #0 {
  %2 = alloca i64, align 8
  %3 = alloca ptr, align 8
  store i64 %0, ptr %2, align 8, !tbaa !35
  call void @llvm.lifetime.start.p0(i64 8, ptr %3) #27
  %4 = load i64, ptr %2, align 8, !tbaa !35
  %5 = call ptr @rb_check_typeddata(i64 noundef %4, ptr noundef @exec_arg_data_type)
  store ptr %5, ptr %3, align 8, !tbaa !68
  %6 = load ptr, ptr %3, align 8, !tbaa !68
  call void @llvm.lifetime.end.p0(i64 8, ptr %3) #27
  ret ptr %6
}

; Function Attrs: nounwind sspstrong uwtable
define dso_local i64 @rb_execarg_new(i32 noundef %0, ptr noundef %1, i32 noundef %2, i32 noundef %3) #0 {
  %5 = alloca i32, align 4
  %6 = alloca ptr, align 8
  %7 = alloca i32, align 4
  %8 = alloca i32, align 4
  %9 = alloca i64, align 8
  %10 = alloca ptr, align 8
  %11 = alloca i64, align 8
  %12 = alloca i64, align 8
  store i32 %0, ptr %5, align 4, !tbaa !34
  store ptr %1, ptr %6, align 8, !tbaa !70
  store i32 %2, ptr %7, align 4, !tbaa !34
  store i32 %3, ptr %8, align 4, !tbaa !34
  call void @llvm.lifetime.start.p0(i64 8, ptr %9) #27
  call void @llvm.lifetime.start.p0(i64 8, ptr %10) #27
  call void @llvm.lifetime.start.p0(i64 8, ptr %11) #27
  %13 = call i64 @rb_data_typed_object_zalloc(i64 noundef 0, i64 noundef 176, ptr noundef @exec_arg_data_type)
  store i64 %13, ptr %11, align 8, !tbaa !35
  %14 = load i64, ptr %11, align 8, !tbaa !35
  %15 = call ptr @RTYPEDDATA_GET_DATA(i64 noundef %14)
  store ptr %15, ptr %10, align 8, !tbaa !68
  %16 = load i64, ptr %11, align 8, !tbaa !35
  store i64 %16, ptr %12, align 8, !tbaa !35
  call void @llvm.lifetime.end.p0(i64 8, ptr %11) #27
  %17 = load i64, ptr %12, align 8, !tbaa !35
  store i64 %17, ptr %9, align 8, !tbaa !35
  %18 = load i32, ptr %5, align 4, !tbaa !34
  %19 = load ptr, ptr %6, align 8, !tbaa !70
  %20 = load i32, ptr %7, align 4, !tbaa !34
  %21 = load i64, ptr %9, align 8, !tbaa !35
  %22 = call i64 @rb_execarg_init(i32 noundef %18, ptr noundef %19, i32 noundef %20, i64 noundef %21)
  %23 = load i32, ptr %8, align 4, !tbaa !34
  %24 = icmp ne i32 %23, 0
  br i1 %24, label %35, label %25

25:                                               ; preds = %4
  %26 = load ptr, ptr %10, align 8, !tbaa !68
  %27 = getelementptr inbounds nuw %struct.rb_execarg, ptr %26, i32 0, i32 5
  %28 = load i16, ptr %27, align 8
  %29 = lshr i16 %28, 13
  %30 = and i16 %29, 1
  %31 = zext i16 %30 to i32
  %32 = icmp ne i32 %31, 0
  br i1 %32, label %33, label %35

33:                                               ; preds = %25
  %34 = load i64, ptr @rb_eArgError, align 8, !tbaa !35
  call void (i64, ptr, ...) @rb_raise(i64 noundef %34, ptr noundef @.str.12) #30
  unreachable

35:                                               ; preds = %25, %4
  %36 = load i64, ptr %9, align 8, !tbaa !35
  call void @llvm.lifetime.end.p0(i64 8, ptr %10) #27
  call void @llvm.lifetime.end.p0(i64 8, ptr %9) #27
  ret i64 %36
}

; Function Attrs: inlinehint nounwind sspstrong uwtable
define internal ptr @rb_current_thread() #1 {
  %1 = alloca ptr, align 8
  call void @llvm.lifetime.start.p0(i64 8, ptr %1) #27
  %2 = call ptr @rb_current_execution_context(i1 noundef zeroext true)
  store ptr %2, ptr %1, align 8, !tbaa !33
  %3 = load ptr, ptr %1, align 8, !tbaa !33
  %4 = call ptr @rb_ec_thread_ptr(ptr noundef %3)
  call void @llvm.lifetime.end.p0(i64 8, ptr %1) #27
  ret ptr %4
}

; Function Attrs: nounwind sspstrong uwtable
define internal i64 @rb_f_system(i32 noundef %0, ptr noundef %1, i64 noundef %2) #0 {
  %4 = alloca i64, align 8
  %5 = alloca i32, align 4
  %6 = alloca ptr, align 8
  %7 = alloca i64, align 8
  %8 = alloca ptr, align 8
  %9 = alloca i64, align 8
  %10 = alloca ptr, align 8
  %11 = alloca %struct.rb_process_status, align 4
  %12 = alloca i32, align 4
  %13 = alloca i64, align 8
  %14 = alloca ptr, align 8
  %15 = alloca i32, align 4
  %16 = alloca i64, align 8
  %17 = alloca ptr, align 8
  %18 = alloca ptr, align 8
  %19 = alloca i64, align 8
  %20 = alloca i64, align 8
  %21 = alloca ptr, align 8
  %22 = alloca ptr, align 8
  %23 = alloca i64, align 8
  %24 = alloca ptr, align 8
  %25 = alloca ptr, align 8
  store i32 %0, ptr %5, align 4, !tbaa !34
  store ptr %1, ptr %6, align 8, !tbaa !70
  store i64 %2, ptr %7, align 8, !tbaa !35
  call void @llvm.lifetime.start.p0(i64 8, ptr %8) #27
  %26 = call ptr @rb_current_thread()
  store ptr %26, ptr %8, align 8, !tbaa !46
  call void @llvm.lifetime.start.p0(i64 8, ptr %9) #27
  %27 = load i32, ptr %5, align 4, !tbaa !34
  %28 = load ptr, ptr %6, align 8, !tbaa !70
  %29 = call i64 @rb_execarg_new(i32 noundef %27, ptr noundef %28, i32 noundef 1, i32 noundef 1)
  store i64 %29, ptr %9, align 8, !tbaa !35
  call void @llvm.lifetime.start.p0(i64 8, ptr %10) #27
  %30 = load i64, ptr %9, align 8, !tbaa !35
  %31 = call ptr @rb_execarg_get(i64 noundef %30)
  store ptr %31, ptr %10, align 8, !tbaa !68
  call void @llvm.lifetime.start.p0(i64 12, ptr %11) #27
  call void @llvm.memset.p0.i64(ptr align 4 %11, i8 0, i64 12, i1 false)
  %32 = load ptr, ptr %10, align 8, !tbaa !68
  %33 = getelementptr inbounds nuw %struct.rb_execarg, ptr %32, i32 0, i32 6
  store ptr %11, ptr %33, align 8, !tbaa !190
  %34 = load ptr, ptr %8, align 8, !tbaa !46
  call void @last_status_clear(ptr noundef %34)
  call void @llvm.lifetime.start.p0(i64 4, ptr %12) #27
  %35 = load i64, ptr %9, align 8, !tbaa !35
  %36 = call i32 @rb_execarg_spawn(i64 noundef %35, ptr noundef null, i64 noundef 0)
  store i32 %36, ptr %12, align 4, !tbaa !34
  %37 = load i32, ptr %12, align 4, !tbaa !34
  %38 = icmp sgt i32 %37, 0
  br i1 %38, label %39, label %111

39:                                               ; preds = %3
  call void @llvm.lifetime.start.p0(i64 8, ptr %13) #27
  %40 = load i32, ptr %12, align 4, !tbaa !34
  %41 = call i64 @rb_process_status_wait(i32 noundef %40, i32 noundef 0)
  store i64 %41, ptr %13, align 8, !tbaa !35
  call void @llvm.lifetime.start.p0(i64 8, ptr %14) #27
  %42 = load i64, ptr %13, align 8, !tbaa !35
  %43 = call ptr @rb_check_typeddata(i64 noundef %42, ptr noundef @rb_process_status_type)
  store ptr %43, ptr %14, align 8, !tbaa !36
  %44 = load i64, ptr %13, align 8, !tbaa !35
  %45 = call i64 @rb_obj_freeze(i64 noundef %44)
  %46 = load i64, ptr %13, align 8, !tbaa !35
  %47 = load ptr, ptr %8, align 8, !tbaa !46
  %48 = getelementptr inbounds nuw %struct.rb_thread_struct, ptr %47, i32 0, i32 9
  store i64 %46, ptr %48, align 8, !tbaa !7
  %49 = load ptr, ptr %14, align 8, !tbaa !36
  %50 = getelementptr inbounds nuw %struct.rb_process_status, ptr %49, i32 0, i32 1
  %51 = load i32, ptr %50, align 4, !tbaa !40
  %52 = icmp eq i32 %51, 0
  br i1 %52, label %53, label %54

53:                                               ; preds = %39
  store i64 20, ptr %4, align 8
  store i32 1, ptr %15, align 4
  br label %110

54:                                               ; preds = %39
  %55 = load ptr, ptr %14, align 8, !tbaa !36
  %56 = getelementptr inbounds nuw %struct.rb_process_status, ptr %55, i32 0, i32 2
  %57 = load i32, ptr %56, align 4, !tbaa !41
  %58 = icmp ne i32 %57, 0
  br i1 %58, label %59, label %80

59:                                               ; preds = %54
  %60 = load ptr, ptr %10, align 8, !tbaa !68
  %61 = getelementptr inbounds nuw %struct.rb_execarg, ptr %60, i32 0, i32 5
  %62 = load i16, ptr %61, align 8
  %63 = lshr i16 %62, 12
  %64 = and i16 %63, 1
  %65 = zext i16 %64 to i32
  %66 = icmp ne i32 %65, 0
  br i1 %66, label %67, label %79

67:                                               ; preds = %59
  call void @llvm.lifetime.start.p0(i64 8, ptr %16) #27
  %68 = load ptr, ptr %10, align 8, !tbaa !68
  %69 = getelementptr inbounds nuw %struct.rb_execarg, ptr %68, i32 0, i32 0
  %70 = getelementptr inbounds nuw %struct.anon.14, ptr %69, i32 0, i32 0
  %71 = load i64, ptr %70, align 8, !tbaa !66
  store i64 %71, ptr %16, align 8, !tbaa !35
  call void @llvm.lifetime.start.p0(i64 8, ptr %17) #27
  store ptr %9, ptr %17, align 8, !tbaa !70
  call void asm sideeffect "", "*m,~{dirflag},~{fpsr},~{flags}"(ptr elementtype(ptr) %17) #27, !srcloc !191
  %72 = load ptr, ptr %17, align 8, !tbaa !70
  store ptr %72, ptr %18, align 8, !tbaa !70
  call void @llvm.lifetime.end.p0(i64 8, ptr %17) #27
  %73 = load ptr, ptr %18, align 8, !tbaa !70
  %74 = load volatile i64, ptr %73, align 8, !tbaa !35
  %75 = load ptr, ptr %14, align 8, !tbaa !36
  %76 = getelementptr inbounds nuw %struct.rb_process_status, ptr %75, i32 0, i32 2
  %77 = load i32, ptr %76, align 4, !tbaa !41
  %78 = load i64, ptr %16, align 8, !tbaa !35
  call void @rb_syserr_fail_str(i32 noundef %77, i64 noundef %78) #30
  unreachable

79:                                               ; preds = %59
  store i64 4, ptr %4, align 8
  store i32 1, ptr %15, align 4
  br label %110

80:                                               ; preds = %54
  %81 = load ptr, ptr %10, align 8, !tbaa !68
  %82 = getelementptr inbounds nuw %struct.rb_execarg, ptr %81, i32 0, i32 5
  %83 = load i16, ptr %82, align 8
  %84 = lshr i16 %83, 12
  %85 = and i16 %84, 1
  %86 = zext i16 %85 to i32
  %87 = icmp ne i32 %86, 0
  br i1 %87, label %88, label %109

88:                                               ; preds = %80
  call void @llvm.lifetime.start.p0(i64 8, ptr %19) #27
  %89 = load ptr, ptr %10, align 8, !tbaa !68
  %90 = getelementptr inbounds nuw %struct.rb_execarg, ptr %89, i32 0, i32 0
  %91 = getelementptr inbounds nuw %struct.anon.14, ptr %90, i32 0, i32 0
  %92 = load i64, ptr %91, align 8, !tbaa !66
  store i64 %92, ptr %19, align 8, !tbaa !35
  call void @llvm.lifetime.start.p0(i64 8, ptr %20) #27
  %93 = call i64 @rbimpl_str_new_cstr(ptr noundef @.str.230)
  store i64 %93, ptr %20, align 8, !tbaa !35
  %94 = load i64, ptr %20, align 8, !tbaa !35
  %95 = load ptr, ptr %14, align 8, !tbaa !36
  %96 = getelementptr inbounds nuw %struct.rb_process_status, ptr %95, i32 0, i32 1
  %97 = load i32, ptr %96, align 4, !tbaa !40
  %98 = call i64 @pst_message_status(i64 noundef %94, i32 noundef %97)
  %99 = call i64 @rbimpl_str_cat_cstr(i64 noundef %98, ptr noundef @.str.231)
  %100 = load i64, ptr %20, align 8, !tbaa !35
  %101 = load i64, ptr %19, align 8, !tbaa !35
  %102 = call i64 @rb_str_append(i64 noundef %100, i64 noundef %101)
  call void @llvm.lifetime.start.p0(i64 8, ptr %21) #27
  store ptr %9, ptr %21, align 8, !tbaa !70
  call void asm sideeffect "", "*m,~{dirflag},~{fpsr},~{flags}"(ptr elementtype(ptr) %21) #27, !srcloc !192
  %103 = load ptr, ptr %21, align 8, !tbaa !70
  store ptr %103, ptr %22, align 8, !tbaa !70
  call void @llvm.lifetime.end.p0(i64 8, ptr %21) #27
  %104 = load ptr, ptr %22, align 8, !tbaa !70
  %105 = load volatile i64, ptr %104, align 8, !tbaa !35
  %106 = load i64, ptr @rb_eRuntimeError, align 8, !tbaa !35
  %107 = load i64, ptr %20, align 8, !tbaa !35
  %108 = call i64 @rb_exc_new_str(i64 noundef %106, i64 noundef %107)
  call void @rb_exc_raise(i64 noundef %108) #30
  unreachable

109:                                              ; preds = %80
  store i64 0, ptr %4, align 8
  store i32 1, ptr %15, align 4
  br label %110

110:                                              ; preds = %109, %79, %53
  call void @llvm.lifetime.end.p0(i64 8, ptr %14) #27
  call void @llvm.lifetime.end.p0(i64 8, ptr %13) #27
  br label %131

111:                                              ; preds = %3
  %112 = load ptr, ptr %10, align 8, !tbaa !68
  %113 = getelementptr inbounds nuw %struct.rb_execarg, ptr %112, i32 0, i32 5
  %114 = load i16, ptr %113, align 8
  %115 = lshr i16 %114, 12
  %116 = and i16 %115, 1
  %117 = zext i16 %116 to i32
  %118 = icmp ne i32 %117, 0
  br i1 %118, label %119, label %130

119:                                              ; preds = %111
  call void @llvm.lifetime.start.p0(i64 8, ptr %23) #27
  %120 = load ptr, ptr %10, align 8, !tbaa !68
  %121 = getelementptr inbounds nuw %struct.rb_execarg, ptr %120, i32 0, i32 0
  %122 = getelementptr inbounds nuw %struct.anon.14, ptr %121, i32 0, i32 0
  %123 = load i64, ptr %122, align 8, !tbaa !66
  store i64 %123, ptr %23, align 8, !tbaa !35
  call void @llvm.lifetime.start.p0(i64 8, ptr %24) #27
  store ptr %9, ptr %24, align 8, !tbaa !70
  call void asm sideeffect "", "*m,~{dirflag},~{fpsr},~{flags}"(ptr elementtype(ptr) %24) #27, !srcloc !193
  %124 = load ptr, ptr %24, align 8, !tbaa !70
  store ptr %124, ptr %25, align 8, !tbaa !70
  call void @llvm.lifetime.end.p0(i64 8, ptr %24) #27
  %125 = load ptr, ptr %25, align 8, !tbaa !70
  %126 = load volatile i64, ptr %125, align 8, !tbaa !35
  %127 = call ptr @rb_errno_ptr()
  %128 = load i32, ptr %127, align 4, !tbaa !34
  %129 = load i64, ptr %23, align 8, !tbaa !35
  call void @rb_syserr_fail_str(i32 noundef %128, i64 noundef %129) #30
  unreachable

130:                                              ; preds = %111
  store i64 4, ptr %4, align 8
  store i32 1, ptr %15, align 4
  br label %131

131:                                              ; preds = %130, %110
  call void @llvm.lifetime.end.p0(i64 4, ptr %12) #27
  call void @llvm.lifetime.end.p0(i64 12, ptr %11) #27
  call void @llvm.lifetime.end.p0(i64 8, ptr %10) #27
  call void @llvm.lifetime.end.p0(i64 8, ptr %9) #27
  call void @llvm.lifetime.end.p0(i64 8, ptr %8) #27
  %132 = load i64, ptr %4, align 8
  ret i64 %132
}