; Function Attrs: nounwind sspstrong uwtable
define internal range(i64 0, 21) i64 @rb_f_system(i32 noundef %0, ptr noundef readonly captures(none) %1, i64 %2) #1 {
rb_execarg_new.exit:
  %3 = alloca i64, align 8
  %4 = alloca %struct.rb_process_status, align 4
  %5 = alloca ptr, align 8
  %6 = alloca ptr, align 8
  %7 = alloca ptr, align 8
  %8 = tail call align 8 ptr @llvm.threadlocal.address.p0(ptr align 8 @ruby_current_ec)
  %9 = load ptr, ptr %8, align 8, !tbaa !7
  %10 = getelementptr i8, ptr %9, i64 48
  %.val.i = load ptr, ptr %10, align 8, !tbaa !12
  call void @llvm.lifetime.start.p0(i64 8, ptr nonnull %3) #27
  %11 = tail call i64 @rb_data_typed_object_zalloc(i64 noundef 0, i64 noundef 176, ptr noundef nonnull @exec_arg_data_type) #27
  tail call fastcc void @rb_execarg_init(i32 noundef %0, ptr noundef readonly %1, i32 noundef 1, i64 noundef %11)
  store i64 %11, ptr %3, align 8, !tbaa !43
  %12 = tail call ptr @rb_check_typeddata(i64 noundef %11, ptr noundef nonnull @exec_arg_data_type) #27
  call void @llvm.lifetime.start.p0(i64 12, ptr nonnull %4) #27
  call void @llvm.memset.p0.i64(ptr noundef nonnull align 4 dereferenceable(12) %4, i8 0, i64 12, i1 false)
  %13 = getelementptr inbounds nuw i8, ptr %12, i64 72
  store ptr %4, ptr %13, align 8, !tbaa !250
  %14 = getelementptr inbounds nuw i8, ptr %.val.i, i64 208
  store i64 4, ptr %14, align 8, !tbaa !24
  %15 = call fastcc i32 @rb_execarg_spawn(i64 noundef %11, ptr noundef null, i64 noundef 0)
  %16 = icmp sgt i32 %15, 0
  br i1 %16, label %17, label %47

17:                                               ; preds = %rb_execarg_new.exit
  %18 = call i64 @rb_process_status_wait(i32 noundef %15, i32 noundef 0)
  %19 = call ptr @rb_check_typeddata(i64 noundef %18, ptr noundef nonnull @rb_process_status_type) #27
  %20 = call i64 @rb_obj_freeze(i64 noundef %18) #27
  store i64 %18, ptr %14, align 8, !tbaa !24
  %21 = getelementptr inbounds nuw i8, ptr %19, i64 4
  %22 = load i32, ptr %21, align 4, !tbaa !51
  %23 = icmp eq i32 %22, 0
  br i1 %23, label %57, label %24

24:                                               ; preds = %17
  %25 = getelementptr inbounds nuw i8, ptr %19, i64 8
  %26 = load i32, ptr %25, align 4, !tbaa !52
  %.not30 = icmp eq i32 %26, 0
  %27 = getelementptr inbounds nuw i8, ptr %12, i64 64
  %28 = load i16, ptr %27, align 8
  %29 = and i16 %28, 4096
  %.not31 = icmp eq i16 %29, 0
  br i1 %.not30, label %36, label %30

30:                                               ; preds = %24
  br i1 %.not31, label %57, label %31

31:                                               ; preds = %30
  %32 = load i64, ptr %12, align 8, !tbaa !67
  call void @llvm.lifetime.start.p0(i64 8, ptr nonnull %5) #27
  store ptr %3, ptr %5, align 8, !tbaa !75
  call void asm sideeffect "", "*m,~{dirflag},~{fpsr},~{flags}"(ptr nonnull elementtype(ptr) %5) #27, !srcloc !251
  %33 = load ptr, ptr %5, align 8, !tbaa !75
  call void @llvm.lifetime.end.p0(i64 8, ptr nonnull %5) #27
  %34 = load volatile i64, ptr %33, align 8, !tbaa !43
  %35 = load i32, ptr %25, align 4, !tbaa !52
  call void @rb_syserr_fail_str(i32 noundef %35, i64 noundef %32) #29
  unreachable

36:                                               ; preds = %24
  br i1 %.not31, label %57, label %37

37:                                               ; preds = %36
  %38 = load i64, ptr %12, align 8, !tbaa !67
  %39 = call fastcc i64 @rbimpl_str_new_cstr(ptr noundef @.str.230)
  %40 = load i32, ptr %21, align 4, !tbaa !51
  %41 = call fastcc i64 @pst_message_status(i64 noundef %39, i32 noundef %40)
  call fastcc void @rbimpl_str_cat_cstr(i64 noundef %39, ptr noundef @.str.231)
  %42 = call i64 @rb_str_append(i64 noundef %39, i64 noundef %38) #27
  call void @llvm.lifetime.start.p0(i64 8, ptr nonnull %6) #27
  store ptr %3, ptr %6, align 8, !tbaa !75
  call void asm sideeffect "", "*m,~{dirflag},~{fpsr},~{flags}"(ptr nonnull elementtype(ptr) %6) #27, !srcloc !252
  %43 = load ptr, ptr %6, align 8, !tbaa !75
  call void @llvm.lifetime.end.p0(i64 8, ptr nonnull %6) #27
  %44 = load volatile i64, ptr %43, align 8, !tbaa !43
  %45 = load i64, ptr @rb_eRuntimeError, align 8, !tbaa !43
  %46 = call i64 @rb_exc_new_str(i64 noundef %45, i64 noundef %39) #27
  call void @rb_exc_raise(i64 noundef %46) #29
  unreachable

47:                                               ; preds = %rb_execarg_new.exit
  %48 = getelementptr inbounds nuw i8, ptr %12, i64 64
  %49 = load i16, ptr %48, align 8
  %50 = and i16 %49, 4096
  %.not = icmp eq i16 %50, 0
  br i1 %.not, label %57, label %51

51:                                               ; preds = %47
  %52 = load i64, ptr %12, align 8, !tbaa !67
  call void @llvm.lifetime.start.p0(i64 8, ptr nonnull %7) #27
  store ptr %3, ptr %7, align 8, !tbaa !75
  call void asm sideeffect "", "*m,~{dirflag},~{fpsr},~{flags}"(ptr nonnull elementtype(ptr) %7) #27, !srcloc !253
  %53 = load ptr, ptr %7, align 8, !tbaa !75
  call void @llvm.lifetime.end.p0(i64 8, ptr nonnull %7) #27
  %54 = load volatile i64, ptr %53, align 8, !tbaa !43
  %55 = call ptr @rb_errno_ptr() #27
  %56 = load i32, ptr %55, align 4, !tbaa !60
  call void @rb_syserr_fail_str(i32 noundef %56, i64 noundef %52) #29
  unreachable

57:                                               ; preds = %47, %17, %30, %36
  %.1 = phi i64 [ 20, %17 ], [ 4, %30 ], [ 0, %36 ], [ 4, %47 ]
  call void @llvm.lifetime.end.p0(i64 12, ptr nonnull %4) #27
  call void @llvm.lifetime.end.p0(i64 8, ptr nonnull %3) #27
  ret i64 %.1
}